	.file	"jason.c"
	.comm	b,4,4
	.globl	c
	.data
	.align 4
	.type	c, @object
	.size	c, 4
c:
	.long	1
	.comm	v,4,4
	.comm	O,36,32
	.comm	j,4,4
	.globl	s
	.align 4
	.type	s, @object
	.size	s, 4
s:
	.long	16
	.comm	a,4,4
	.comm	n,4,4
	.comm	Z,12,4
	.comm	L,99,32
	.globl	S
	.align 4
	.type	S, @object
	.size	S, 4
S:
	.long	Z
	.comm	M,999,32
	.comm	m,64,32
	.comm	co,1,1
	.comm	ol,1,1
	.globl	p
	.section	.rodata
	.align 4
.LC0:
	.ascii	"| C((j=i* T(i-4 )) +R (3 ) + 4 ) D(J) !j --E( 0 D ( K )!-!N,"
	.ascii	" || i &, _( R ) :i* c== (O [ j ] ) &&n==f (j+ 6 + 5 * 4)?O ["
	.ascii	"j]= !i * c-_ ( L) :J(i ) D ( N ) j=9, & d(0 )? j= 6 | ! i , "
	.ascii	"J(i )D ( o)(*S = p , ++ S,p = M , r (q (i) ),-- S, p = *S)) "
	.ascii	"( (l (_ (Q )),n =s,i ^5 ) ) ;gets ( L, + 98 , stdin ) ? p= L"
	.ascii	"D ( A )! n?i&&!g ( (0 ) ) ||K ( j=4| ! !i ) : N(!i )D( Q)++j"
	.ascii	"< (s ) &&Q ( t( i)^i ) D( U )i>= 0 ?U( i- 1 )||~f (i+1 ) == "
	.ascii	"~ s &&H (m[c* 4 |z(i)] ) :0;D ( X) + b && b<;int P ( int i )"
	.ascii	" {time_t(x ) =+ 0+ time(0) ; j=E( u (i ) : i D(R )e(r , a ,n"
	.ascii	" ,d) ()% i+1, ( e( l , o, caltim , e ) (& x)) ->e( tm_h , o,"
	.ascii	" u , r) ;retur , i?_( W ): _( U) D(Y) *p&& *p<3 * 11 ? ( ++ "
	.ascii	"p ), n j= + 34 +( j< 6 ||j>19 ),Y (i) : *p D ( F) i == 9 ?1 "
	.ascii	": F( (i+ 7)% ( 7 + 3) ) +!O[ i ]D(u) *p &&* p -32? p ++) D ("
	.ascii	"h ) i ?*++*S=i% ( 38)- 1V ( v=*O = k( j= 9 )) ; return ! c&&"
	.ascii	" - ~ ~ - -! printf ( ( \"%d \\n\") , F (P ( 0) +6) *50 + ! !"
	.ascii	" b* ( +b - (int)time ( 0 )) ) ;E(f ( 9) -s ? -s + 'q' ? f( 5"
	.ascii	" ) -s &&'d' - s?U( 3 ) ||_(J) :A ( s- f( 5 )) :(c= 4 * 4): g"
	.ascii	"(0)D( V)c <= 3 *4 + 3&&c && V(X ( i) ) ; } int , time ( 0)& "
	.ascii	", c - 15 || P (1 ):0, & ( !!d ( 0 ) ||(a=! _(S)) ,b= 0 )|| a"
	.ascii	" ?d(a = 0) ? _ (I): w ( j =!W(j=_ (V ))) , l(_ (Y+ s ) ) )e "
	.ascii	"( main(){; ;;;s , ra, n, d)E(j , sign , v ,ed ( b ) ;; int c"
	.ascii	" =1 ,O[9]) ;int( s )= E (n ;char, 1 ,a,6 ,o ())* Z[ E(M [37 "
	.ascii	"* 9 *3 ] ,0,L [ 99] ,3] , * *S=Z ) ; E (*p=+1 ,char( m)[6 , "
	.ascii	"co , 4 ],ol) +E (r( 0 ): 0 ,h( i / 38 ) : 0;D( C)! ( m[j]+m "
	.ascii	"[a= i] ) ?m[j[m]= i]=j:0;D (d) ! b+(* O- c)* * O; D (z ) -~-"
	.ascii	" ~ -~i + v & 3 D(y)( putchar ) ( i) D ( q ) i& ,!(O[j = i] |"
	.ascii	"| _ ( O))+a :0; D (w)O[ j] ==c && o (( !i ++ ? ! !_ (M ): 0)"
	.ascii	" +15)|| ++ j<9 &&w ( i)D ( r )*p? *p -4? * p -6 ? y(*p <9 + "
	.ascii	"2?__[ * p ]: * p+ 7 +79):o( j+1) : o (26+j),&q ( -! * p ++ +"
	.ascii	" i )D(x)i? a=x ( ( -- i)), ++ p ) D( t ) i( b= 60 + time ( 0"
	.ascii	")+ 60 * 4) ;B? B ?B ?B? B ?B ?B ?7 :B?B ?36: 59 * 89 *5 * 2 "
	.ascii	":B?6587 *77 :9 + 2:B ?B?B?9: 5 : 37 : B ? 5 +5:4:20: B?B?B?3"
	.ascii	"2 :e( 4, 3 , 1 *4 * 59 * 1 , 7):B? 17: 34 : 19 :B ? 8 *2 :B "
	.ascii	"? 2:26: B? B?B ?B ? 82 "
	.ascii	"*+ 576: B ?33 :22 :5 * 5:3 *4 :3:B ?B ?B? B ?6 + + 17 : B?B?"
	.ascii	"13:6 : 9 *2:B?15 : 7 *2 : B ? B ? 27:24: 31 : B? B? + 29 :&&"
	.ascii	" C ( j +R( s-j+t( i- 1) ) )D( W)m[ c* 4| z( j ) ] &&_( X )E "
	.ascii	"(d ( 0 )&& R( 6)/ 6 ? c= 17|_ ( T ) :01,||+ , v =i & 3 ^ 2 ,"
	.ascii	"+j & 3&&W ( j)||y ( 10 )D ("
	.string	"k) -- j ? k ( O[j]=R(15 )) : 1 D ( H )o ( 7+! ! i+3 )+ i? c=i /4 & 63, a= 1 :0) D ( f )( p =M ,q ( i),*p+86) D ( l) * fn =Y (u (s =Y (i) ) ) : (exit( 0) ,i)D( g )x ( _(N) ^ 9)? !( a =0) : _ ( P )D (T)! i|for (*S = M ; * p; )m [a^ 2 ] =T( 8 * 7) ;j= 3 ; ; Q"
	.data
	.align 4
	.type	p, @object
	.size	p, 4
p:
	.long	.LC0+1
	.text
	.globl	P
	.type	P, @function
P:
.LFB0:
	.cfi_startproc
	pushl	%ebp
	.cfi_def_cfa_offset 8
	.cfi_offset 5, -8
	movl	%esp, %ebp
	.cfi_def_cfa_register 5
	subl	$40, %esp
	movl	$0, (%esp)
	call	time
	movl	%eax, -12(%ebp)
	leal	-12(%ebp), %eax
	movl	%eax, (%esp)
	call	localtime
	movl	8(%eax), %eax
	movl	%eax, j
	movl	j, %eax
	cmpl	$5, %eax
	jle	.L2
	movl	j, %eax
	cmpl	$19, %eax
	jle	.L3
.L2:
	movl	$1, %eax
	jmp	.L4
.L3:
	movl	$0, %eax
.L4:
	addl	$34, %eax
	movl	%eax, j
	cmpl	$0, 8(%ebp)
	je	.L5
	movl	$87, %eax
	movsbl	%al, %eax
	subl	$64, %eax
	movl	%eax, (%esp)
	call	o
	jmp	.L6
.L5:
	movl	$85, %eax
	movsbl	%al, %eax
	subl	$64, %eax
	movl	%eax, (%esp)
	call	o
.L6:
	leave
	.cfi_restore 5
	.cfi_def_cfa 4, 4
	ret
	.cfi_endproc
.LFE0:
	.size	P, .-P
	.globl	Y
	.type	Y, @function
Y:
.LFB1:
	.cfi_startproc
	pushl	%ebp
	.cfi_def_cfa_offset 8
	.cfi_offset 5, -8
	movl	%esp, %ebp
	.cfi_def_cfa_register 5
	subl	$24, %esp
	movl	p, %eax
	movzbl	(%eax), %eax
	testb	%al, %al
	je	.L9
	movl	p, %eax
	movzbl	(%eax), %eax
	cmpb	$32, %al
	jg	.L9
	movl	p, %eax
	addl	$1, %eax
	movl	%eax, p
	movl	8(%ebp), %eax
	movl	%eax, (%esp)
	call	Y
	jmp	.L10
.L9:
	movl	p, %eax
	movzbl	(%eax), %eax
	movsbl	%al, %eax
.L10:
	leave
	.cfi_restore 5
	.cfi_def_cfa 4, 4
	ret
	.cfi_endproc
.LFE1:
	.size	Y, .-Y
	.globl	F
	.type	F, @function
F:
.LFB2:
	.cfi_startproc
	pushl	%ebp
	.cfi_def_cfa_offset 8
	.cfi_offset 5, -8
	movl	%esp, %ebp
	.cfi_def_cfa_register 5
	subl	$24, %esp
	cmpl	$9, 8(%ebp)
	je	.L13
	movl	8(%ebp), %eax
	leal	7(%eax), %ecx
	movl	$1717986919, %edx
	movl	%ecx, %eax
	imull	%edx
	sarl	$2, %edx
	movl	%ecx, %eax
	sarl	$31, %eax
	subl	%eax, %edx
	movl	%edx, %eax
	sall	$2, %eax
	addl	%edx, %eax
	addl	%eax, %eax
	movl	%ecx, %edx
	subl	%eax, %edx
	movl	%edx, (%esp)
	call	F
	movl	8(%ebp), %edx
	movl	O(,%edx,4), %edx
	testl	%edx, %edx
	sete	%dl
	movzbl	%dl, %edx
	addl	%edx, %eax
	jmp	.L14
.L13:
	movl	$1, %eax
.L14:
	leave
	.cfi_restore 5
	.cfi_def_cfa 4, 4
	ret
	.cfi_endproc
.LFE2:
	.size	F, .-F
	.globl	u
	.type	u, @function
u:
.LFB3:
	.cfi_startproc
	pushl	%ebp
	.cfi_def_cfa_offset 8
	.cfi_offset 5, -8
	movl	%esp, %ebp
	.cfi_def_cfa_register 5
	subl	$24, %esp
	movl	p, %eax
	movzbl	(%eax), %eax
	testb	%al, %al
	je	.L17
	movl	p, %eax
	movzbl	(%eax), %eax
	cmpb	$32, %al
	je	.L17
	movl	p, %eax
	addl	$1, %eax
	movl	%eax, p
	movl	8(%ebp), %eax
	movl	%eax, (%esp)
	call	u
	jmp	.L18
.L17:
	movl	8(%ebp), %eax
.L18:
	leave
	.cfi_restore 5
	.cfi_def_cfa 4, 4
	ret
	.cfi_endproc
.LFE3:
	.size	u, .-u
	.globl	R
	.type	R, @function
R:
.LFB4:
	.cfi_startproc
	pushl	%ebp
	.cfi_def_cfa_offset 8
	.cfi_offset 5, -8
	movl	%esp, %ebp
	.cfi_def_cfa_register 5
	subl	$8, %esp
	call	rand
	movl	%eax, %edx
	sarl	$31, %edx
	idivl	8(%ebp)
	movl	%edx, %eax
	addl	$1, %eax
	leave
	.cfi_restore 5
	.cfi_def_cfa 4, 4
	ret
	.cfi_endproc
.LFE4:
	.size	R, .-R
	.globl	h
	.type	h, @function
h:
.LFB5:
	.cfi_startproc
	pushl	%ebp
	.cfi_def_cfa_offset 8
	.cfi_offset 5, -8
	movl	%esp, %ebp
	.cfi_def_cfa_register 5
	pushl	%esi
	pushl	%ebx
	subl	$16, %esp
	.cfi_offset 6, -12
	.cfi_offset 3, -16
	cmpl	$0, 8(%ebp)
	je	.L23
	movl	S, %eax
	movl	(%eax), %edx
	addl	$1, %edx
	movl	%edx, (%eax)
	movl	(%eax), %ebx
	movl	8(%ebp), %ecx
	movl	$1808407283, %edx
	movl	%ecx, %eax
	imull	%edx
	sarl	$4, %edx
	movl	%ecx, %eax
	sarl	$31, %eax
	movl	%edx, %esi
	subl	%eax, %esi
	movl	%esi, %eax
	imull	$38, %eax, %eax
	movl	%ecx, %edx
	subl	%eax, %edx
	movl	%edx, %eax
	subl	$1, %eax
	movb	%al, (%ebx)
	movl	8(%ebp), %ecx
	movl	$1808407283, %edx
	movl	%ecx, %eax
	imull	%edx
	sarl	$4, %edx
	movl	%ecx, %eax
	sarl	$31, %eax
	movl	%edx, %ecx
	subl	%eax, %ecx
	movl	%ecx, %eax
	movl	%eax, (%esp)
	call	h
	jmp	.L24
.L23:
	movl	$0, %eax
.L24:
	addl	$16, %esp
	popl	%ebx
	.cfi_restore 3
	popl	%esi
	.cfi_restore 6
	popl	%ebp
	.cfi_restore 5
	.cfi_def_cfa 4, 4
	ret
	.cfi_endproc
.LFE5:
	.size	h, .-h
	.globl	C
	.type	C, @function
C:
.LFB6:
	.cfi_startproc
	pushl	%ebp
	.cfi_def_cfa_offset 8
	.cfi_offset 5, -8
	movl	%esp, %ebp
	.cfi_def_cfa_register 5
	movl	j, %eax
	movzbl	m(%eax), %eax
	movsbl	%al, %edx
	movl	8(%ebp), %eax
	movl	%eax, a
	movl	a, %eax
	movzbl	m(%eax), %eax
	movsbl	%al, %eax
	addl	%edx, %eax
	testl	%eax, %eax
	jne	.L27
	movl	j, %eax
	movl	8(%ebp), %edx
	movb	%dl, m(%eax)
	movzbl	m(%eax), %eax
	movsbl	%al, %eax
	movl	j, %edx
	movb	%dl, m(%eax)
	movzbl	m(%eax), %eax
	movsbl	%al, %eax
	jmp	.L28
.L27:
	movl	$0, %eax
.L28:
	popl	%ebp
	.cfi_restore 5
	.cfi_def_cfa 4, 4
	ret
	.cfi_endproc
.LFE6:
	.size	C, .-C
	.globl	d
	.type	d, @function
d:
.LFB7:
	.cfi_startproc
	pushl	%ebp
	.cfi_def_cfa_offset 8
	.cfi_offset 5, -8
	movl	%esp, %ebp
	.cfi_def_cfa_register 5
	movl	b, %eax
	testl	%eax, %eax
	sete	%al
	movzbl	%al, %edx
	movl	O, %ecx
	movl	c, %eax
	subl	%eax, %ecx
	movl	O, %eax
	imull	%ecx, %eax
	addl	%edx, %eax
	popl	%ebp
	.cfi_restore 5
	.cfi_def_cfa 4, 4
	ret
	.cfi_endproc
.LFE7:
	.size	d, .-d
	.globl	z
	.type	z, @function
z:
.LFB8:
	.cfi_startproc
	pushl	%ebp
	.cfi_def_cfa_offset 8
	.cfi_offset 5, -8
	movl	%esp, %ebp
	.cfi_def_cfa_register 5
	movl	8(%ebp), %eax
	leal	3(%eax), %edx
	movl	v, %eax
	addl	%edx, %eax
	andl	$3, %eax
	popl	%ebp
	.cfi_restore 5
	.cfi_def_cfa 4, 4
	ret
	.cfi_endproc
.LFE8:
	.size	z, .-z
	.globl	y
	.type	y, @function
y:
.LFB9:
	.cfi_startproc
	pushl	%ebp
	.cfi_def_cfa_offset 8
	.cfi_offset 5, -8
	movl	%esp, %ebp
	.cfi_def_cfa_register 5
	subl	$24, %esp
	movl	8(%ebp), %eax
	movl	%eax, (%esp)
	call	putchar
	leave
	.cfi_restore 5
	.cfi_def_cfa 4, 4
	ret
	.cfi_endproc
.LFE9:
	.size	y, .-y
	.globl	q
	.type	q, @function
q:
.LFB10:
	.cfi_startproc
	pushl	%ebp
	.cfi_def_cfa_offset 8
	.cfi_offset 5, -8
	movl	%esp, %ebp
	.cfi_def_cfa_register 5
	pushl	%ebx
	subl	$20, %esp
	.cfi_offset 3, -12
	cmpl	$0, 8(%ebp)
	je	.L37
	movl	p, %eax
	movzbl	(%eax), %edx
	testb	%dl, %dl
	sete	%dl
	movzbl	%dl, %edx
	movl	8(%ebp), %ecx
	movl	%ecx, %ebx
	subl	%edx, %ebx
	movl	%ebx, %edx
	addl	$1, %eax
	movl	%eax, p
	movl	%edx, (%esp)
	call	q
	testl	%eax, %eax
	je	.L37
	movl	$1, %eax
	jmp	.L38
.L37:
	movl	$0, %eax
.L38:
	addl	$20, %esp
	popl	%ebx
	.cfi_restore 3
	popl	%ebp
	.cfi_restore 5
	.cfi_def_cfa 4, 4
	ret
	.cfi_endproc
.LFE10:
	.size	q, .-q
	.globl	x
	.type	x, @function
x:
.LFB11:
	.cfi_startproc
	pushl	%ebp
	.cfi_def_cfa_offset 8
	.cfi_offset 5, -8
	movl	%esp, %ebp
	.cfi_def_cfa_register 5
	subl	$24, %esp
	cmpl	$0, 8(%ebp)
	je	.L41
	subl	$1, 8(%ebp)
	movl	8(%ebp), %eax
	movl	%eax, (%esp)
	call	x
	movl	%eax, a
	movl	8(%ebp), %eax
	movl	%eax, j
	movl	j, %eax
	movl	O(,%eax,4), %eax
	testl	%eax, %eax
	jne	.L42
	movl	$79, %eax
	movsbl	%al, %eax
	subl	$64, %eax
	movl	%eax, (%esp)
	call	o
	testl	%eax, %eax
	jne	.L42
	movl	$1, %eax
	jmp	.L43
.L42:
	movl	$0, %eax
.L43:
	movl	a, %edx
	addl	%edx, %eax
	jmp	.L44
.L41:
	movl	$0, %eax
.L44:
	leave
	.cfi_restore 5
	.cfi_def_cfa 4, 4
	ret
	.cfi_endproc
.LFE11:
	.size	x, .-x
	.globl	w
	.type	w, @function
w:
.LFB12:
	.cfi_startproc
	pushl	%ebp
	.cfi_def_cfa_offset 8
	.cfi_offset 5, -8
	movl	%esp, %ebp
	.cfi_def_cfa_register 5
	subl	$24, %esp
	movl	j, %eax
	movl	O(,%eax,4), %edx
	movl	c, %eax
	cmpl	%eax, %edx
	jne	.L47
	cmpl	$0, 8(%ebp)
	sete	%al
	addl	$1, 8(%ebp)
	testb	%al, %al
	je	.L48
	movl	$77, %eax
	movsbl	%al, %eax
	subl	$64, %eax
	movl	%eax, (%esp)
	call	o
	testl	%eax, %eax
	je	.L48
	movl	$1, %eax
	jmp	.L49
.L48:
	movl	$0, %eax
.L49:
	addl	$15, %eax
	movl	%eax, (%esp)
	call	o
	testl	%eax, %eax
	jne	.L50
.L47:
	movl	j, %eax
	addl	$1, %eax
	movl	%eax, j
	movl	j, %eax
	cmpl	$8, %eax
	jg	.L51
	movl	8(%ebp), %eax
	movl	%eax, (%esp)
	call	w
	testl	%eax, %eax
	je	.L51
.L50:
	movl	$1, %eax
	jmp	.L52
.L51:
	movl	$0, %eax
.L52:
	leave
	.cfi_restore 5
	.cfi_def_cfa 4, 4
	ret
	.cfi_endproc
.LFE12:
	.size	w, .-w
	.section	.rodata
.LC1:
	.string	"Y\n : ! ,.?>"
	.text
	.globl	r
	.type	r, @function
r:
.LFB13:
	.cfi_startproc
	pushl	%ebp
	.cfi_def_cfa_offset 8
	.cfi_offset 5, -8
	movl	%esp, %ebp
	.cfi_def_cfa_register 5
	subl	$24, %esp
	movl	p, %eax
	movzbl	(%eax), %eax
	testb	%al, %al
	je	.L55
	movl	p, %eax
	movzbl	(%eax), %eax
	cmpb	$4, %al
	je	.L56
	movl	p, %eax
	movzbl	(%eax), %eax
	cmpb	$6, %al
	je	.L57
	movl	p, %eax
	movzbl	(%eax), %eax
	cmpb	$10, %al
	jg	.L58
	movl	p, %eax
	movzbl	(%eax), %eax
	movsbl	%al, %eax
	movzbl	.LC1(%eax), %eax
	movsbl	%al, %eax
	jmp	.L59
.L58:
	movl	p, %eax
	movzbl	(%eax), %eax
	movsbl	%al, %eax
	addl	$86, %eax
.L59:
	movl	%eax, (%esp)
	call	y
	jmp	.L61
.L57:
	movl	j, %eax
	addl	$1, %eax
	movl	%eax, (%esp)
	call	o
	jmp	.L61
.L56:
	movl	j, %eax
	addl	$26, %eax
	movl	%eax, (%esp)
	call	o
.L61:
	movl	p, %eax
	addl	$1, %eax
	movl	%eax, p
	movl	$0, (%esp)
	call	r
	jmp	.L62
.L55:
	movl	$0, %eax
.L62:
	leave
	.cfi_restore 5
	.cfi_def_cfa 4, 4
	ret
	.cfi_endproc
.LFE13:
	.size	r, .-r
	.globl	t
	.type	t, @function
t:
.LFB14:
	.cfi_startproc
	pushl	%ebp
	.cfi_def_cfa_offset 8
	.cfi_offset 5, -8
	movl	%esp, %ebp
	.cfi_def_cfa_register 5
	pushl	%ebx
	subl	$20, %esp
	.cfi_offset 3, -12
	cmpl	$0, 8(%ebp)
	je	.L65
	movl	s, %edx
	movl	j, %eax
	movl	%edx, %ebx
	subl	%eax, %ebx
	movl	8(%ebp), %eax
	subl	$1, %eax
	movl	%eax, (%esp)
	call	t
	addl	%ebx, %eax
	movl	%eax, (%esp)
	call	R
	movl	j, %edx
	addl	%edx, %eax
	movl	%eax, (%esp)
	call	C
	testl	%eax, %eax
	je	.L65
	movl	$1, %eax
	jmp	.L66
.L65:
	movl	$0, %eax
.L66:
	addl	$20, %esp
	popl	%ebx
	.cfi_restore 3
	popl	%ebp
	.cfi_restore 5
	.cfi_def_cfa 4, 4
	ret
	.cfi_endproc
.LFE14:
	.size	t, .-t
	.globl	W
	.type	W, @function
W:
.LFB15:
	.cfi_startproc
	pushl	%ebp
	.cfi_def_cfa_offset 8
	.cfi_offset 5, -8
	movl	%esp, %ebp
	.cfi_def_cfa_register 5
	pushl	%ebx
	subl	$20, %esp
	.cfi_offset 3, -12
	movl	c, %eax
	leal	0(,%eax,4), %ebx
	movl	j, %eax
	movl	%eax, (%esp)
	call	z
	orl	%ebx, %eax
	movzbl	m(%eax), %eax
	testb	%al, %al
	je	.L69
	movl	$88, %eax
	movsbl	%al, %eax
	subl	$64, %eax
	movl	%eax, (%esp)
	call	o
	testl	%eax, %eax
	jne	.L70
.L69:
	movl	j, %eax
	addl	$1, %eax
	movl	%eax, j
	movl	j, %eax
	andl	$3, %eax
	testl	%eax, %eax
	je	.L71
	movl	j, %eax
	movl	%eax, (%esp)
	call	W
	testl	%eax, %eax
	jne	.L70
.L71:
	movl	$10, (%esp)
	call	y
	testl	%eax, %eax
	je	.L72
.L70:
	movl	$1, %eax
	jmp	.L73
.L72:
	movl	$0, %eax
.L73:
	addl	$20, %esp
	popl	%ebx
	.cfi_restore 3
	popl	%ebp
	.cfi_restore 5
	.cfi_def_cfa 4, 4
	ret
	.cfi_endproc
.LFE15:
	.size	W, .-W
	.globl	k
	.type	k, @function
k:
.LFB16:
	.cfi_startproc
	pushl	%ebp
	.cfi_def_cfa_offset 8
	.cfi_offset 5, -8
	movl	%esp, %ebp
	.cfi_def_cfa_register 5
	pushl	%ebx
	subl	$20, %esp
	.cfi_offset 3, -12
	movl	j, %eax
	subl	$1, %eax
	movl	%eax, j
	movl	j, %eax
	testl	%eax, %eax
	je	.L76
	movl	j, %ebx
	movl	$15, (%esp)
	call	R
	movl	%eax, O(,%ebx,4)
	movl	O(,%ebx,4), %eax
	movl	%eax, (%esp)
	call	k
	jmp	.L77
.L76:
	movl	$1, %eax
.L77:
	addl	$20, %esp
	popl	%ebx
	.cfi_restore 3
	popl	%ebp
	.cfi_restore 5
	.cfi_def_cfa 4, 4
	ret
	.cfi_endproc
.LFE16:
	.size	k, .-k
	.globl	H
	.type	H, @function
H:
.LFB17:
	.cfi_startproc
	pushl	%ebp
	.cfi_def_cfa_offset 8
	.cfi_offset 5, -8
	movl	%esp, %ebp
	.cfi_def_cfa_register 5
	subl	$24, %esp
	cmpl	$0, 8(%ebp)
	je	.L80
	movl	$11, %eax
	jmp	.L81
.L80:
	movl	$10, %eax
.L81:
	movl	%eax, (%esp)
	call	o
	movl	8(%ebp), %edx
	addl	%edx, %eax
	testl	%eax, %eax
	je	.L83
	movl	8(%ebp), %eax
	leal	3(%eax), %edx
	testl	%eax, %eax
	cmovs	%edx, %eax
	sarl	$2, %eax
	andl	$63, %eax
	movl	%eax, c
	movl	8(%ebp), %eax
	andl	$3, %eax
	xorl	$2, %eax
	movl	%eax, v
	movl	$1, a
.L83:
	movl	$0, (%esp)
	call	d
	testl	%eax, %eax
	je	.L84
	movl	$6, (%esp)
	call	R
	addl	$5, %eax
	cmpl	$10, %eax
	jbe	.L84
	movl	$84, %eax
	movsbl	%al, %eax
	subl	$64, %eax
	movl	%eax, (%esp)
	call	o
	orl	$17, %eax
	movl	%eax, c
	movl	c, %eax
	jmp	.L85
.L84:
	movl	$1, %eax
.L85:
	leave
	.cfi_restore 5
	.cfi_def_cfa 4, 4
	ret
	.cfi_endproc
.LFE17:
	.size	H, .-H
	.globl	f
	.type	f, @function
f:
.LFB18:
	.cfi_startproc
	pushl	%ebp
	.cfi_def_cfa_offset 8
	.cfi_offset 5, -8
	movl	%esp, %ebp
	.cfi_def_cfa_register 5
	subl	$24, %esp
	movl	$M, p
	movl	8(%ebp), %eax
	movl	%eax, (%esp)
	call	q
	movl	p, %eax
	movzbl	(%eax), %eax
	movsbl	%al, %eax
	addl	$86, %eax
	leave
	.cfi_restore 5
	.cfi_def_cfa 4, 4
	ret
	.cfi_endproc
.LFE18:
	.size	f, .-f
	.globl	l
	.type	l, @function
l:
.LFB19:
	.cfi_startproc
	pushl	%ebp
	.cfi_def_cfa_offset 8
	.cfi_offset 5, -8
	movl	%esp, %ebp
	.cfi_def_cfa_register 5
	subl	$24, %esp
	movl	stdin, %eax
	movl	%eax, 8(%esp)
	movl	$98, 4(%esp)
	movl	$L, (%esp)
	call	fgets
	movzbl	(%eax), %eax
	testb	%al, %al
	je	.L90
	movl	$L, p
	movl	8(%ebp), %eax
	movl	%eax, (%esp)
	call	Y
	movl	%eax, s
	movl	s, %eax
	movl	%eax, (%esp)
	call	u
	movl	%eax, (%esp)
	call	Y
	movl	%eax, n
	movl	n, %eax
	jmp	.L92
.L90:
	movl	$0, (%esp)
	call	exit
.L92:
	leave
	.cfi_restore 5
	.cfi_def_cfa 4, 4
	ret
	.cfi_endproc
.LFE19:
	.size	l, .-l
	.globl	g
	.type	g, @function
g:
.LFB20:
	.cfi_startproc
	pushl	%ebp
	.cfi_def_cfa_offset 8
	.cfi_offset 5, -8
	movl	%esp, %ebp
	.cfi_def_cfa_register 5
	subl	$24, %esp
	movl	$78, %eax
	movsbl	%al, %eax
	subl	$64, %eax
	movl	%eax, (%esp)
	call	o
	xorl	$9, %eax
	movl	%eax, (%esp)
	call	x
	testl	%eax, %eax
	je	.L94
	movl	$0, a
	movl	a, %eax
	testl	%eax, %eax
	sete	%al
	movzbl	%al, %eax
	jmp	.L95
.L94:
	movl	$80, %eax
	movsbl	%al, %eax
	subl	$64, %eax
	movl	%eax, (%esp)
	call	o
.L95:
	leave
	.cfi_restore 5
	.cfi_def_cfa 4, 4
	ret
	.cfi_endproc
.LFE20:
	.size	g, .-g
	.globl	T
	.type	T, @function
T:
.LFB21:
	.cfi_startproc
	pushl	%ebp
	.cfi_def_cfa_offset 8
	.cfi_offset 5, -8
	movl	%esp, %ebp
	.cfi_def_cfa_register 5
	pushl	%ebx
	subl	$20, %esp
	.cfi_offset 3, -12
	cmpl	$0, 8(%ebp)
	je	.L98
	movl	8(%ebp), %eax
	subl	$4, %eax
	movl	%eax, (%esp)
	call	T
	imull	8(%ebp), %eax
	movl	%eax, j
	movl	j, %ebx
	movl	$3, (%esp)
	call	R
	addl	%ebx, %eax
	addl	$4, %eax
	movl	%eax, (%esp)
	call	C
	testl	%eax, %eax
	je	.L99
.L98:
	movl	$1, %eax
	jmp	.L100
.L99:
	movl	$0, %eax
.L100:
	addl	$20, %esp
	popl	%ebx
	.cfi_restore 3
	popl	%ebp
	.cfi_restore 5
	.cfi_def_cfa 4, 4
	ret
	.cfi_endproc
.LFE21:
	.size	T, .-T
	.globl	J
	.type	J, @function
J:
.LFB22:
	.cfi_startproc
	pushl	%ebp
	.cfi_def_cfa_offset 8
	.cfi_offset 5, -8
	movl	%esp, %ebp
	.cfi_def_cfa_register 5
	pushl	%esi
	pushl	%ebx
	subl	$16, %esp
	.cfi_offset 6, -12
	.cfi_offset 3, -16
	movl	j, %eax
	testl	%eax, %eax
	sete	%dl
	subl	$1, %eax
	movl	%eax, j
	testb	%dl, %dl
	jne	.L103
	cmpl	$0, 8(%ebp)
	je	.L104
	movl	$0, (%esp)
	call	d
	testl	%eax, %eax
	je	.L104
.L103:
	cmpl	$0, 8(%ebp)
	jne	.L105
	movl	$7, %eax
	jmp	.L106
.L105:
	movl	$6, %eax
.L106:
	movl	%eax, j
	movl	$82, %eax
	movsbl	%al, %eax
	subl	$64, %eax
	movl	%eax, (%esp)
	call	o
	jmp	.L107
.L104:
	movl	c, %eax
	movl	%eax, %edx
	imull	8(%ebp), %edx
	movl	j, %eax
	movl	O(,%eax,4), %eax
	cmpl	%eax, %edx
	jne	.L108
	movl	j, %eax
	addl	$26, %eax
	movl	%eax, (%esp)
	call	f
	movl	n, %edx
	cmpl	%edx, %eax
	jne	.L108
	movl	j, %ebx
	cmpl	$0, 8(%ebp)
	sete	%al
	movzbl	%al, %edx
	movl	c, %eax
	movl	%edx, %esi
	imull	%eax, %esi
	movl	$76, %eax
	movsbl	%al, %eax
	subl	$64, %eax
	movl	%eax, (%esp)
	call	o
	movl	%esi, %edx
	subl	%eax, %edx
	movl	%edx, %eax
	movl	%eax, O(,%ebx,4)
	movl	O(,%ebx,4), %eax
	jmp	.L109
.L108:
	movl	8(%ebp), %eax
	movl	%eax, (%esp)
	call	J
.L109:
.L107:
	addl	$16, %esp
	popl	%ebx
	.cfi_restore 3
	popl	%esi
	.cfi_restore 6
	popl	%ebp
	.cfi_restore 5
	.cfi_def_cfa 4, 4
	ret
	.cfi_endproc
.LFE22:
	.size	J, .-J
	.globl	N
	.type	N, @function
N:
.LFB23:
	.cfi_startproc
	pushl	%ebp
	.cfi_def_cfa_offset 8
	.cfi_offset 5, -8
	movl	%esp, %ebp
	.cfi_def_cfa_register 5
	subl	$24, %esp
	movl	$9, j
	movl	8(%ebp), %eax
	movl	%eax, (%esp)
	call	J
	leave
	.cfi_restore 5
	.cfi_def_cfa 4, 4
	ret
	.cfi_endproc
.LFE23:
	.size	N, .-N
	.globl	o
	.type	o, @function
o:
.LFB24:
	.cfi_startproc
	pushl	%ebp
	.cfi_def_cfa_offset 8
	.cfi_offset 5, -8
	movl	%esp, %ebp
	.cfi_def_cfa_register 5
	subl	$24, %esp
	movl	S, %eax
	movl	p, %edx
	movl	%edx, (%eax)
	movl	S, %eax
	addl	$4, %eax
	movl	%eax, S
	movl	$M, p
	movl	8(%ebp), %eax
	movl	%eax, (%esp)
	call	q
	movl	%eax, (%esp)
	call	r
	movl	S, %eax
	subl	$4, %eax
	movl	%eax, S
	movl	S, %eax
	movl	(%eax), %eax
	movl	%eax, p
	movl	$0, %eax
	leave
	.cfi_restore 5
	.cfi_def_cfa 4, 4
	ret
	.cfi_endproc
.LFE24:
	.size	o, .-o
	.globl	K
	.type	K, @function
K:
.LFB25:
	.cfi_startproc
	pushl	%ebp
	.cfi_def_cfa_offset 8
	.cfi_offset 5, -8
	movl	%esp, %ebp
	.cfi_def_cfa_register 5
	subl	$24, %esp
	movl	$81, %eax
	movsbl	%al, %eax
	subl	$64, %eax
	movl	%eax, (%esp)
	call	o
	movl	%eax, (%esp)
	call	l
	movl	s, %eax
	movl	%eax, n
	movl	8(%ebp), %eax
	xorl	$5, %eax
	movl	%eax, (%esp)
	call	N
	testl	%eax, %eax
	setne	%al
	movzbl	%al, %eax
	leave
	.cfi_restore 5
	.cfi_def_cfa 4, 4
	ret
	.cfi_endproc
.LFE25:
	.size	K, .-K
	.globl	A
	.type	A, @function
A:
.LFB26:
	.cfi_startproc
	pushl	%ebp
	.cfi_def_cfa_offset 8
	.cfi_offset 5, -8
	movl	%esp, %ebp
	.cfi_def_cfa_register 5
	subl	$24, %esp
	movl	n, %eax
	testl	%eax, %eax
	jne	.L118
	cmpl	$0, 8(%ebp)
	je	.L119
	movl	$0, (%esp)
	call	g
	testl	%eax, %eax
	je	.L120
.L119:
	cmpl	$0, 8(%ebp)
	je	.L121
	movl	$5, %eax
	jmp	.L122
.L121:
	movl	$4, %eax
.L122:
	movl	%eax, j
	movl	j, %eax
	movl	%eax, (%esp)
	call	K
	testl	%eax, %eax
	je	.L123
.L120:
	movl	$1, %eax
	jmp	.L124
.L123:
	movl	$0, %eax
.L124:
	jmp	.L125
.L118:
	cmpl	$0, 8(%ebp)
	sete	%al
	movzbl	%al, %eax
	movl	%eax, (%esp)
	call	N
.L125:
	leave
	.cfi_restore 5
	.cfi_def_cfa 4, 4
	ret
	.cfi_endproc
.LFE26:
	.size	A, .-A
	.globl	Q
	.type	Q, @function
Q:
.LFB27:
	.cfi_startproc
	pushl	%ebp
	.cfi_def_cfa_offset 8
	.cfi_offset 5, -8
	movl	%esp, %ebp
	.cfi_def_cfa_register 5
	subl	$24, %esp
	movl	j, %eax
	addl	$1, %eax
	movl	%eax, j
	movl	j, %edx
	movl	s, %eax
	cmpl	%eax, %edx
	jge	.L128
	movl	8(%ebp), %eax
	movl	%eax, (%esp)
	call	t
	xorl	8(%ebp), %eax
	movl	%eax, (%esp)
	call	Q
	testl	%eax, %eax
	je	.L128
	movl	$1, %eax
	jmp	.L129
.L128:
	movl	$0, %eax
.L129:
	leave
	.cfi_restore 5
	.cfi_def_cfa 4, 4
	ret
	.cfi_endproc
.LFE27:
	.size	Q, .-Q
	.globl	U
	.type	U, @function
U:
.LFB28:
	.cfi_startproc
	pushl	%ebp
	.cfi_def_cfa_offset 8
	.cfi_offset 5, -8
	movl	%esp, %ebp
	.cfi_def_cfa_register 5
	pushl	%ebx
	subl	$20, %esp
	.cfi_offset 3, -12
	cmpl	$0, 8(%ebp)
	js	.L132
	movl	8(%ebp), %eax
	subl	$1, %eax
	movl	%eax, (%esp)
	call	U
	testl	%eax, %eax
	jne	.L133
	movl	8(%ebp), %eax
	addl	$1, %eax
	movl	%eax, (%esp)
	call	f
	movl	s, %edx
	cmpl	%edx, %eax
	jne	.L132
	movl	c, %eax
	leal	0(,%eax,4), %ebx
	movl	8(%ebp), %eax
	movl	%eax, (%esp)
	call	z
	orl	%ebx, %eax
	movzbl	m(%eax), %eax
	movsbl	%al, %eax
	movl	%eax, (%esp)
	call	H
	testl	%eax, %eax
	je	.L132
.L133:
	movl	$1, %eax
	jmp	.L134
.L132:
	movl	$0, %eax
.L134:
	addl	$20, %esp
	popl	%ebx
	.cfi_restore 3
	popl	%ebp
	.cfi_restore 5
	.cfi_def_cfa 4, 4
	ret
	.cfi_endproc
.LFE28:
	.size	U, .-U
	.globl	X
	.type	X, @function
X:
.LFB29:
	.cfi_startproc
	pushl	%ebp
	.cfi_def_cfa_offset 8
	.cfi_offset 5, -8
	movl	%esp, %ebp
	.cfi_def_cfa_register 5
	pushl	%ebx
	subl	$20, %esp
	.cfi_offset 3, -12
	movl	b, %eax
	testl	%eax, %eax
	je	.L137
	movl	$0, (%esp)
	call	time
	movl	b, %edx
	cmpl	%edx, %eax
	jle	.L137
	movl	$0, (%esp)
	call	d
	testl	%eax, %eax
	jne	.L140
	movl	$83, %eax
	movsbl	%al, %eax
	subl	$64, %eax
	movl	%eax, (%esp)
	call	o
	testl	%eax, %eax
	sete	%al
	movzbl	%al, %eax
	movl	%eax, a
	movl	a, %eax
	testl	%eax, %eax
.L140:
	movl	$0, b
	movl	b, %eax
	testl	%eax, %eax
	jne	.L141
.L137:
	movl	a, %eax
	testl	%eax, %eax
	je	.L148
.L141:
	movl	$0, a
	movl	a, %eax
	movl	%eax, (%esp)
	call	d
	testl	%eax, %eax
	je	.L143
	movl	$73, %eax
	movsbl	%al, %eax
	subl	$64, %eax
	movl	%eax, (%esp)
	call	o
	jmp	.L144
.L143:
	movl	$86, %eax
	movsbl	%al, %eax
	subl	$64, %eax
	movl	%eax, (%esp)
	call	o
	movl	%eax, j
	movl	j, %eax
	movl	%eax, (%esp)
	call	W
	testl	%eax, %eax
	sete	%al
	movzbl	%al, %eax
	movl	%eax, j
	movl	j, %eax
	movl	%eax, (%esp)
	call	w
.L144:
	movl	c, %eax
	cmpl	$15, %eax
	jne	.L148
	movl	$1, (%esp)
	call	P
	testl	%eax, %eax
.L148:
	movl	$89, %eax
	movsbl	%al, %eax
	subl	$64, %eax
	movl	%eax, (%esp)
	call	o
	movl	%eax, (%esp)
	call	l
	movl	$9, (%esp)
	call	f
	movl	s, %edx
	cmpl	%edx, %eax
	je	.L149
	movl	s, %eax
	cmpl	$113, %eax
	je	.L150
	movl	$5, (%esp)
	call	f
	movl	s, %edx
	cmpl	%edx, %eax
	je	.L151
	movl	s, %eax
	cmpl	$100, %eax
	je	.L151
	movl	$3, (%esp)
	call	U
	testl	%eax, %eax
	jne	.L152
	movl	$74, %eax
	movsbl	%al, %eax
	subl	$64, %eax
	movl	%eax, (%esp)
	call	o
	testl	%eax, %eax
	je	.L153
.L152:
	movl	$1, %eax
	jmp	.L154
.L153:
	movl	$0, %eax
.L154:
	jmp	.L155
.L151:
	movl	s, %ebx
	movl	$5, (%esp)
	call	f
	movl	%ebx, %edx
	subl	%eax, %edx
	movl	%edx, %eax
	movl	%eax, (%esp)
	call	A
.L155:
	jmp	.L156
.L150:
	movl	$16, c
	movl	c, %eax
.L156:
	jmp	.L157
.L149:
	movl	$0, (%esp)
	call	g
.L157:
	addl	$20, %esp
	popl	%ebx
	.cfi_restore 3
	popl	%ebp
	.cfi_restore 5
	.cfi_def_cfa 4, 4
	ret
	.cfi_endproc
.LFE29:
	.size	X, .-X
	.globl	V
	.type	V, @function
V:
.LFB30:
	.cfi_startproc
	pushl	%ebp
	.cfi_def_cfa_offset 8
	.cfi_offset 5, -8
	movl	%esp, %ebp
	.cfi_def_cfa_register 5
	subl	$24, %esp
	movl	c, %eax
	cmpl	$15, %eax
	jg	.L160
	movl	c, %eax
	testl	%eax, %eax
	je	.L160
	movl	8(%ebp), %eax
	movl	%eax, (%esp)
	call	X
	movl	%eax, (%esp)
	call	V
	testl	%eax, %eax
	je	.L160
	movl	$1, %eax
	jmp	.L161
.L160:
	movl	$0, %eax
.L161:
	leave
	.cfi_restore 5
	.cfi_def_cfa 4, 4
	ret
	.cfi_endproc
.LFE30:
	.size	V, .-V
	.section	.rodata
.LC2:
	.string	"%d \n"
	.text
	.globl	main
	.type	main, @function
main:
.LFB31:
	.cfi_startproc
	pushl	%ebp
	.cfi_def_cfa_offset 8
	.cfi_offset 5, -8
	movl	%esp, %ebp
	.cfi_def_cfa_register 5
	pushl	%edi
	pushl	%esi
	pushl	%ebx
	andl	$-16, %esp
	subl	$16, %esp
	.cfi_offset 7, -12
	.cfi_offset 6, -16
	.cfi_offset 3, -20
	movl	$0, (%esp)
	call	time
	addl	$300, %eax
	movl	%eax, b
	movl	b, %eax
	movl	%eax, (%esp)
	call	srand
	movl	S, %eax
	movl	$M, (%eax)
	jmp	.L164
.L269:
	movl	p, %eax
	movzbl	(%eax), %edx
	cmpb	$32, %dl
	setne	%dl
	addl	$1, %eax
	movl	%eax, p
	testb	%dl, %dl
	jne	.L165
	movl	p, %eax
	testl	%eax, %eax
	sete	%dl
	addl	$1, %eax
	movl	%eax, p
	testb	%dl, %dl
	je	.L166
.L165:
	movl	p, %eax
	movzbl	(%eax), %edx
	cmpb	$32, %dl
	setne	%dl
	addl	$1, %eax
	movl	%eax, p
	testb	%dl, %dl
	jne	.L167
	movl	p, %eax
	testl	%eax, %eax
	sete	%dl
	addl	$1, %eax
	movl	%eax, p
	testb	%dl, %dl
	je	.L168
.L167:
	movl	p, %eax
	movzbl	(%eax), %edx
	cmpb	$32, %dl
	setne	%dl
	addl	$1, %eax
	movl	%eax, p
	testb	%dl, %dl
	jne	.L169
	movl	p, %eax
	testl	%eax, %eax
	sete	%dl
	addl	$1, %eax
	movl	%eax, p
	testb	%dl, %dl
	je	.L170
.L169:
	movl	p, %eax
	movzbl	(%eax), %edx
	cmpb	$32, %dl
	setne	%dl
	addl	$1, %eax
	movl	%eax, p
	testb	%dl, %dl
	jne	.L171
	movl	p, %eax
	testl	%eax, %eax
	sete	%dl
	addl	$1, %eax
	movl	%eax, p
	testb	%dl, %dl
	je	.L172
.L171:
	movl	p, %eax
	movzbl	(%eax), %edx
	cmpb	$32, %dl
	setne	%dl
	addl	$1, %eax
	movl	%eax, p
	testb	%dl, %dl
	jne	.L173
	movl	p, %eax
	testl	%eax, %eax
	sete	%dl
	addl	$1, %eax
	movl	%eax, p
	testb	%dl, %dl
	je	.L174
.L173:
	movl	p, %eax
	movzbl	(%eax), %edx
	cmpb	$32, %dl
	setne	%dl
	addl	$1, %eax
	movl	%eax, p
	testb	%dl, %dl
	jne	.L175
	movl	p, %eax
	testl	%eax, %eax
	sete	%dl
	addl	$1, %eax
	movl	%eax, p
	testb	%dl, %dl
	je	.L176
.L175:
	movl	p, %eax
	movzbl	(%eax), %edx
	cmpb	$32, %dl
	sete	%dl
	addl	$1, %eax
	movl	%eax, p
	testb	%dl, %dl
	je	.L177
	movl	p, %eax
	testl	%eax, %eax
	setne	%dl
	addl	$1, %eax
	movl	%eax, p
	testb	%dl, %dl
	je	.L177
	movl	p, %eax
	movzbl	(%eax), %edx
	cmpb	$32, %dl
	setne	%dl
	addl	$1, %eax
	movl	%eax, p
	testb	%dl, %dl
	jne	.L178
	movl	p, %eax
	testl	%eax, %eax
	sete	%dl
	addl	$1, %eax
	movl	%eax, p
	testb	%dl, %dl
	je	.L179
.L178:
	movl	p, %eax
	movzbl	(%eax), %edx
	cmpb	$32, %dl
	setne	%dl
	addl	$1, %eax
	movl	%eax, p
	testb	%dl, %dl
	jne	.L180
	movl	p, %eax
	testl	%eax, %eax
	sete	%dl
	addl	$1, %eax
	movl	%eax, p
	testb	%dl, %dl
	je	.L181
.L180:
	movl	$36, %eax
	jmp	.L182
.L181:
	movl	$52510, %eax
.L182:
	jmp	.L183
.L179:
	movl	p, %eax
	movzbl	(%eax), %edx
	cmpb	$32, %dl
	setne	%dl
	addl	$1, %eax
	movl	%eax, p
	testb	%dl, %dl
	jne	.L184
	movl	p, %eax
	testl	%eax, %eax
	sete	%dl
	addl	$1, %eax
	movl	%eax, p
	testb	%dl, %dl
	je	.L185
.L184:
	movl	$507199, %eax
	jmp	.L186
.L185:
	movl	$11, %eax
.L186:
.L183:
	jmp	.L187
.L177:
	movl	$7, %eax
.L187:
	jmp	.L188
.L176:
	movl	p, %eax
	movzbl	(%eax), %edx
	cmpb	$32, %dl
	setne	%dl
	addl	$1, %eax
	movl	%eax, p
	testb	%dl, %dl
	jne	.L189
	movl	p, %eax
	testl	%eax, %eax
	sete	%dl
	addl	$1, %eax
	movl	%eax, p
	testb	%dl, %dl
	je	.L190
.L189:
	movl	p, %eax
	movzbl	(%eax), %edx
	cmpb	$32, %dl
	setne	%dl
	addl	$1, %eax
	movl	%eax, p
	testb	%dl, %dl
	jne	.L191
	movl	p, %eax
	testl	%eax, %eax
	sete	%dl
	addl	$1, %eax
	movl	%eax, p
	testb	%dl, %dl
	je	.L192
.L191:
	movl	p, %eax
	movzbl	(%eax), %edx
	cmpb	$32, %dl
	setne	%dl
	addl	$1, %eax
	movl	%eax, p
	testb	%dl, %dl
	jne	.L193
	movl	p, %eax
	testl	%eax, %eax
	sete	%dl
	addl	$1, %eax
	movl	%eax, p
	testb	%dl, %dl
	je	.L194
.L193:
	movl	$9, %eax
	jmp	.L195
.L194:
	movl	$5, %eax
.L195:
	jmp	.L196
.L192:
	movl	$37, %eax
.L196:
	jmp	.L197
.L190:
	movl	p, %eax
	movzbl	(%eax), %edx
	cmpb	$32, %dl
	setne	%dl
	addl	$1, %eax
	movl	%eax, p
	testb	%dl, %dl
	jne	.L198
	movl	p, %eax
	testl	%eax, %eax
	sete	%dl
	addl	$1, %eax
	movl	%eax, p
	testb	%dl, %dl
	je	.L199
.L198:
	movl	$10, %eax
	jmp	.L200
.L199:
	movl	$4, %eax
.L200:
.L197:
.L188:
	jmp	.L201
.L174:
	movl	$20, %eax
.L201:
	jmp	.L202
.L172:
	movl	p, %eax
	movzbl	(%eax), %edx
	cmpb	$32, %dl
	setne	%dl
	addl	$1, %eax
	movl	%eax, p
	testb	%dl, %dl
	jne	.L203
	movl	p, %eax
	testl	%eax, %eax
	sete	%dl
	addl	$1, %eax
	movl	%eax, p
	testb	%dl, %dl
	je	.L204
.L203:
	movl	p, %eax
	movzbl	(%eax), %edx
	cmpb	$32, %dl
	setne	%dl
	addl	$1, %eax
	movl	%eax, p
	testb	%dl, %dl
	jne	.L205
	movl	p, %eax
	testl	%eax, %eax
	sete	%dl
	addl	$1, %eax
	movl	%eax, p
	testb	%dl, %dl
	je	.L206
.L205:
	movl	p, %eax
	movzbl	(%eax), %edx
	cmpb	$32, %dl
	setne	%dl
	addl	$1, %eax
	movl	%eax, p
	testb	%dl, %dl
	jne	.L207
	movl	p, %eax
	testl	%eax, %eax
	sete	%dl
	addl	$1, %eax
	movl	%eax, p
	testb	%dl, %dl
	je	.L208
.L207:
	movl	$32, %eax
	jmp	.L209
.L208:
	movl	$1729172, %eax
.L209:
	jmp	.L210
.L206:
	movl	p, %eax
	movzbl	(%eax), %edx
	cmpb	$32, %dl
	setne	%dl
	addl	$1, %eax
	movl	%eax, p
	testb	%dl, %dl
	jne	.L211
	movl	p, %eax
	testl	%eax, %eax
	sete	%dl
	addl	$1, %eax
	movl	%eax, p
	testb	%dl, %dl
	je	.L212
.L211:
	movl	$17, %eax
	jmp	.L213
.L212:
	movl	$34, %eax
.L213:
.L210:
	jmp	.L214
.L204:
	movl	$19, %eax
.L214:
.L202:
	jmp	.L215
.L170:
	movl	p, %eax
	movzbl	(%eax), %edx
	cmpb	$32, %dl
	sete	%dl
	addl	$1, %eax
	movl	%eax, p
	testb	%dl, %dl
	je	.L216
	movl	p, %eax
	testl	%eax, %eax
	setne	%dl
	addl	$1, %eax
	movl	%eax, p
	testb	%dl, %dl
	je	.L216
	movl	p, %eax
	movzbl	(%eax), %edx
	cmpb	$32, %dl
	setne	%dl
	addl	$1, %eax
	movl	%eax, p
	testb	%dl, %dl
	jne	.L217
	movl	p, %eax
	testl	%eax, %eax
	sete	%dl
	addl	$1, %eax
	movl	%eax, p
	testb	%dl, %dl
	je	.L218
.L217:
	movl	$2, %eax
	jmp	.L219
.L218:
	movl	$26, %eax
.L219:
	jmp	.L220
.L216:
	movl	$16, %eax
.L220:
.L215:
	jmp	.L221
.L168:
	movl	p, %eax
	movzbl	(%eax), %edx
	cmpb	$32, %dl
	setne	%dl
	addl	$1, %eax
	movl	%eax, p
	testb	%dl, %dl
	jne	.L222
	movl	p, %eax
	testl	%eax, %eax
	sete	%dl
	addl	$1, %eax
	movl	%eax, p
	testb	%dl, %dl
	je	.L223
.L222:
	movl	p, %eax
	movzbl	(%eax), %edx
	cmpb	$32, %dl
	setne	%dl
	addl	$1, %eax
	movl	%eax, p
	testb	%dl, %dl
	jne	.L224
	movl	p, %eax
	testl	%eax, %eax
	sete	%dl
	addl	$1, %eax
	movl	%eax, p
	testb	%dl, %dl
	je	.L225
.L224:
	movl	p, %eax
	movzbl	(%eax), %edx
	cmpb	$32, %dl
	setne	%dl
	addl	$1, %eax
	movl	%eax, p
	testb	%dl, %dl
	jne	.L226
	movl	p, %eax
	testl	%eax, %eax
	sete	%dl
	addl	$1, %eax
	movl	%eax, p
	testb	%dl, %dl
	je	.L227
.L226:
	movl	p, %eax
	movzbl	(%eax), %edx
	cmpb	$32, %dl
	sete	%dl
	addl	$1, %eax
	movl	%eax, p
	testb	%dl, %dl
	je	.L228
	movl	p, %eax
	testl	%eax, %eax
	setne	%dl
	addl	$1, %eax
	movl	%eax, p
	testb	%dl, %dl
	je	.L228
	movl	p, %eax
	movzbl	(%eax), %edx
	cmpb	$32, %dl
	setne	%dl
	addl	$1, %eax
	movl	%eax, p
	testb	%dl, %dl
	jne	.L229
	movl	p, %eax
	testl	%eax, %eax
	sete	%dl
	addl	$1, %eax
	movl	%eax, p
	testb	%dl, %dl
	je	.L230
.L229:
	movl	$33, %eax
	jmp	.L231
.L230:
	movl	$22, %eax
.L231:
	jmp	.L232
.L228:
	movl	$47232, %eax
.L232:
	jmp	.L233
.L227:
	movl	$25, %eax
.L233:
	jmp	.L234
.L225:
	movl	$12, %eax
.L234:
	jmp	.L235
.L223:
	movl	$3, %eax
.L235:
.L221:
	jmp	.L236
.L166:
	movl	p, %eax
	movzbl	(%eax), %edx
	cmpb	$32, %dl
	setne	%dl
	addl	$1, %eax
	movl	%eax, p
	testb	%dl, %dl
	jne	.L237
	movl	p, %eax
	testl	%eax, %eax
	sete	%dl
	addl	$1, %eax
	movl	%eax, p
	testb	%dl, %dl
	je	.L238
.L237:
	movl	p, %eax
	movzbl	(%eax), %edx
	cmpb	$32, %dl
	setne	%dl
	addl	$1, %eax
	movl	%eax, p
	testb	%dl, %dl
	jne	.L239
	movl	p, %eax
	testl	%eax, %eax
	sete	%dl
	addl	$1, %eax
	movl	%eax, p
	testb	%dl, %dl
	je	.L240
.L239:
	movl	p, %eax
	movzbl	(%eax), %edx
	cmpb	$32, %dl
	setne	%dl
	addl	$1, %eax
	movl	%eax, p
	testb	%dl, %dl
	jne	.L241
	movl	p, %eax
	testl	%eax, %eax
	sete	%dl
	addl	$1, %eax
	movl	%eax, p
	testb	%dl, %dl
	je	.L242
.L241:
	movl	p, %eax
	movzbl	(%eax), %edx
	cmpb	$32, %dl
	sete	%dl
	addl	$1, %eax
	movl	%eax, p
	testb	%dl, %dl
	je	.L243
	movl	p, %eax
	testl	%eax, %eax
	setne	%dl
	addl	$1, %eax
	movl	%eax, p
	testb	%dl, %dl
	je	.L243
	movl	p, %eax
	movzbl	(%eax), %edx
	cmpb	$32, %dl
	setne	%dl
	addl	$1, %eax
	movl	%eax, p
	testb	%dl, %dl
	jne	.L244
	movl	p, %eax
	testl	%eax, %eax
	sete	%dl
	addl	$1, %eax
	movl	%eax, p
	testb	%dl, %dl
	je	.L245
.L244:
	movl	p, %eax
	movzbl	(%eax), %edx
	cmpb	$32, %dl
	setne	%dl
	addl	$1, %eax
	movl	%eax, p
	testb	%dl, %dl
	jne	.L246
	movl	p, %eax
	testl	%eax, %eax
	sete	%dl
	addl	$1, %eax
	movl	%eax, p
	testb	%dl, %dl
	je	.L247
.L246:
	movl	$13, %eax
	jmp	.L248
.L247:
	movl	$6, %eax
.L248:
	jmp	.L249
.L245:
	movl	$18, %eax
.L249:
	jmp	.L250
.L243:
	movl	$23, %eax
.L250:
	jmp	.L251
.L242:
	movl	p, %eax
	movzbl	(%eax), %edx
	cmpb	$32, %dl
	setne	%dl
	addl	$1, %eax
	movl	%eax, p
	testb	%dl, %dl
	jne	.L252
	movl	p, %eax
	testl	%eax, %eax
	sete	%dl
	addl	$1, %eax
	movl	%eax, p
	testb	%dl, %dl
	je	.L253
.L252:
	movl	$15, %eax
	jmp	.L254
.L253:
	movl	$14, %eax
.L254:
.L251:
	jmp	.L255
.L240:
	movl	p, %eax
	movzbl	(%eax), %edx
	cmpb	$32, %dl
	setne	%dl
	addl	$1, %eax
	movl	%eax, p
	testb	%dl, %dl
	jne	.L256
	movl	p, %eax
	testl	%eax, %eax
	sete	%dl
	addl	$1, %eax
	movl	%eax, p
	testb	%dl, %dl
	je	.L257
.L256:
	movl	p, %eax
	movzbl	(%eax), %edx
	cmpb	$32, %dl
	setne	%dl
	addl	$1, %eax
	movl	%eax, p
	testb	%dl, %dl
	jne	.L258
	movl	p, %eax
	testl	%eax, %eax
	sete	%dl
	addl	$1, %eax
	movl	%eax, p
	testb	%dl, %dl
	je	.L259
.L258:
	movl	$27, %eax
	jmp	.L260
.L259:
	movl	$24, %eax
.L260:
	jmp	.L261
.L257:
	movl	$31, %eax
.L261:
.L255:
	jmp	.L262
.L238:
	movl	p, %eax
	movzbl	(%eax), %edx
	cmpb	$32, %dl
	setne	%dl
	addl	$1, %eax
	movl	%eax, p
	testb	%dl, %dl
	jne	.L263
	movl	p, %eax
	testl	%eax, %eax
	sete	%dl
	addl	$1, %eax
	movl	%eax, p
	testb	%dl, %dl
	je	.L264
.L263:
	movl	p, %eax
	movzbl	(%eax), %edx
	cmpb	$32, %dl
	setne	%dl
	addl	$1, %eax
	movl	%eax, p
	testb	%dl, %dl
	jne	.L265
	movl	p, %eax
	testl	%eax, %eax
	sete	%dl
	addl	$1, %eax
	movl	%eax, p
	testb	%dl, %dl
	je	.L266
.L265:
	movl	$29, %eax
	jmp	.L267
.L266:
	movl	$30, %eax
.L267:
	jmp	.L268
.L264:
	movl	$1, %eax
.L268:
.L262:
.L236:
	movl	%eax, (%esp)
	call	h
.L164:
	movl	p, %eax
	movzbl	(%eax), %eax
	testb	%al, %al
	jne	.L269
	movl	a, %eax
	movl	%eax, %ebx
	xorl	$2, %ebx
	movl	$56, (%esp)
	call	T
	movb	%al, m(%ebx)
	movl	$3, j
	movl	$2, (%esp)
	call	Q
	movl	$35, s
	movl	$3, (%esp)
	call	Q
	movl	$59, s
	movl	$6, (%esp)
	call	Q
	movl	$1, a
	movl	$9, j
	movl	j, %eax
	movl	%eax, (%esp)
	call	k
	movl	%eax, O
	movl	O, %eax
	movl	%eax, v
	movl	v, %eax
	movl	%eax, (%esp)
	call	V
	movl	c, %eax
	testl	%eax, %eax
	jne	.L270
	movl	$0, (%esp)
	call	P
	addl	$6, %eax
	movl	%eax, (%esp)
	call	F
	imull	$50, %eax, %ebx
	movl	b, %eax
	testl	%eax, %eax
	setne	%al
	movzbl	%al, %esi
	movl	b, %edi
	movl	$0, (%esp)
	call	time
	movl	%edi, %edx
	subl	%eax, %edx
	movl	%edx, %eax
	imull	%esi, %eax
	addl	%ebx, %eax
	movl	%eax, 4(%esp)
	movl	$.LC2, (%esp)
	call	printf
	testl	%eax, %eax
	jne	.L270
	movl	$1, %eax
	jmp	.L271
.L270:
	movl	$0, %eax
.L271:
	leal	-12(%ebp), %esp
	popl	%ebx
	.cfi_restore 3
	popl	%esi
	.cfi_restore 6
	popl	%edi
	.cfi_restore 7
	popl	%ebp
	.cfi_restore 5
	.cfi_def_cfa 4, 4
	ret
	.cfi_endproc
.LFE31:
	.size	main, .-main
	.ident	"GCC: (GNU) 4.7.2"
	.section	.note.GNU-stack,"",@progbits
